; Function Attrs: mustprogress nofree norecurse nosync nounwind willreturn memory(argmem: readwrite) uwtable
define dso_local void @quicklistSetOptions(ptr noundef captures(none) %0, i32 noundef %1, i32 noundef %2) local_unnamed_addr #4 {
  %spec.store.select.i = tail call i32 @llvm.smax.i32(i32 %1, i32 -5)
  %narrow.i = tail call i32 @llvm.smin.i32(i32 %spec.store.select.i, i32 32767)
  %4 = getelementptr inbounds nuw i8, ptr %0, i64 32
  %5 = load i64, ptr %4, align 8
  %6 = and i64 %5, -4294967296
  %7 = icmp sgt i32 %2, 65535
  %spec.store.select.i3 = tail call i32 @llvm.smax.i32(i32 %2, i32 0)
  %8 = shl i32 %spec.store.select.i3, 16
  %narrow.i4 = select i1 %7, i32 -65536, i32 %8
  %9 = and i32 %narrow.i, 65535
  %10 = or disjoint i32 %narrow.i4, %9
  %11 = zext i32 %10 to i64
  %12 = or disjoint i64 %6, %11
  store i64 %12, ptr %4, align 8
  ret void
}